; Function Attrs: nounwind uwtable
define ptr @evhttp_request_get_evhttp_uri(ptr noundef %0) local_unnamed_addr #0 {
  %2 = getelementptr inbounds nuw i8, ptr %0, i64 104
  %3 = load ptr, ptr %2, align 8
  %4 = icmp eq ptr %3, null
  %5 = load i32, ptr @event_debug_logging_mask_, align 4
  %6 = icmp ne i32 %5, 0
  %or.cond = select i1 %4, i1 %6, i1 false
  br i1 %or.cond, label %7, label %8

7:                                                ; preds = %1
  tail call void (ptr, ...) @event_debugx_(ptr noundef nonnull @.str.34, ptr noundef nonnull @__func__.evhttp_request_get_evhttp_uri, ptr noundef nonnull %0) #18
  %.pre = load ptr, ptr %2, align 8
  br label %8

8:                                                ; preds = %7, %1
  %9 = phi ptr [ %.pre, %7 ], [ %3, %1 ]
  ret ptr %9
}